; Function Attrs: nounwind uwtable
define ptr @l_Lake_ConfigLang_ofString_x3f(ptr noundef %0) local_unnamed_addr #1 {
  %2 = load ptr, ptr @l_Lake_ConfigLang_ofString_x3f___closed__1, align 8, !tbaa !10
  %3 = icmp eq ptr %0, %2
  br i1 %3, label %lean_string_dec_eq.exit.thread12, label %4

4:                                                ; preds = %1
  %5 = getelementptr i8, ptr %0, i64 8
  %.val.i.i = load i64, ptr %5, align 8, !tbaa !16
  %6 = getelementptr i8, ptr %2, i64 8
  %.val7.i.i = load i64, ptr %6, align 8, !tbaa !16
  %7 = icmp eq i64 %.val.i.i, %.val7.i.i
  br i1 %7, label %lean_string_dec_eq.exit, label %lean_string_dec_eq.exit.thread

lean_string_dec_eq.exit:                          ; preds = %4
  %8 = tail call zeroext i1 @lean_string_eq_cold(ptr noundef nonnull %0, ptr noundef nonnull %2) #5
  br i1 %8, label %lean_string_dec_eq.exit.thread12, label %lean_string_dec_eq.exit.thread

lean_string_dec_eq.exit.thread:                   ; preds = %4, %lean_string_dec_eq.exit
  %9 = load ptr, ptr @l_Lake_ConfigLang_ofString_x3f___closed__2, align 8, !tbaa !10
  %10 = icmp eq ptr %0, %9
  br i1 %10, label %lean_string_dec_eq.exit11.thread13, label %11

11:                                               ; preds = %lean_string_dec_eq.exit.thread
  %.val.i.i9 = load i64, ptr %5, align 8, !tbaa !16
  %12 = getelementptr i8, ptr %9, i64 8
  %.val7.i.i10 = load i64, ptr %12, align 8, !tbaa !16
  %13 = icmp eq i64 %.val.i.i9, %.val7.i.i10
  br i1 %13, label %lean_string_dec_eq.exit11, label %lean_string_dec_eq.exit11.thread

lean_string_dec_eq.exit11:                        ; preds = %11
  %14 = tail call zeroext i1 @lean_string_eq_cold(ptr noundef nonnull %0, ptr noundef nonnull %9) #5
  br i1 %14, label %lean_string_dec_eq.exit11.thread13, label %lean_string_dec_eq.exit11.thread

lean_string_dec_eq.exit11.thread13:               ; preds = %lean_string_dec_eq.exit.thread, %lean_string_dec_eq.exit11
  %15 = load ptr, ptr @l_Lake_ConfigLang_ofString_x3f___closed__3, align 8, !tbaa !10
  br label %lean_string_dec_eq.exit11.thread

lean_string_dec_eq.exit.thread12:                 ; preds = %1, %lean_string_dec_eq.exit
  %16 = load ptr, ptr @l_Lake_ConfigLang_ofString_x3f___closed__4, align 8, !tbaa !10
  br label %lean_string_dec_eq.exit11.thread

lean_string_dec_eq.exit11.thread:                 ; preds = %11, %lean_string_dec_eq.exit11, %lean_string_dec_eq.exit11.thread13, %lean_string_dec_eq.exit.thread12
  %.1 = phi ptr [ %16, %lean_string_dec_eq.exit.thread12 ], [ %15, %lean_string_dec_eq.exit11.thread13 ], [ inttoptr (i64 1 to ptr), %lean_string_dec_eq.exit11 ], [ inttoptr (i64 1 to ptr), %11 ]
  ret ptr %.1
}